target datalayout = "e-m:e-p270:32:32-p271:32:32-p272:64:64-i64:64-i128:128-f80:128-n8:16:32:64-S128"
target triple = "x86_64-pc-linux-gnu"

@ff_log2_tab = external constant [256 x i8], align 16

; Function Attrs: alwaysinline nounwind willreturn memory(none) uwtable
define internal i32 @ff_log2_16bit_c(i32 noundef %0) #2 {
  %2 = alloca i32, align 4
  %3 = alloca i32, align 4
  store i32 %0, ptr %2, align 4, !tbaa !9
  call void @llvm.lifetime.start.p0(i64 4, ptr %3) #6
  store i32 0, ptr %3, align 4, !tbaa !9
  %4 = load i32, ptr %2, align 4, !tbaa !9
  %5 = and i32 %4, 65280
  %6 = icmp ne i32 %5, 0
  br i1 %6, label %7, label %12

7:                                                ; preds = %1
  %8 = load i32, ptr %2, align 4, !tbaa !9
  %9 = lshr i32 %8, 8
  store i32 %9, ptr %2, align 4, !tbaa !9
  %10 = load i32, ptr %3, align 4, !tbaa !9
  %11 = add nsw i32 %10, 8
  store i32 %11, ptr %3, align 4, !tbaa !9
  br label %12

12:                                               ; preds = %7, %1
  %13 = load i32, ptr %2, align 4, !tbaa !9
  %14 = zext i32 %13 to i64
  %15 = getelementptr inbounds nuw [256 x i8], ptr @ff_log2_tab, i64 0, i64 %14
  %16 = load i8, ptr %15, align 1, !tbaa !16
  %17 = zext i8 %16 to i32
  %18 = load i32, ptr %3, align 4, !tbaa !9
  %19 = add nsw i32 %18, %17
  store i32 %19, ptr %3, align 4, !tbaa !9
  %20 = load i32, ptr %3, align 4, !tbaa !9
  call void @llvm.lifetime.end.p0(i64 4, ptr %3) #6
  ret i32 %20
}

; Function Attrs: nounwind uwtable
define i32 @ff_g723_1_scale_vector(ptr noundef %0, ptr noundef %1, i32 noundef %2) #0 {
  %4 = alloca ptr, align 8
  %5 = alloca ptr, align 8
  %6 = alloca i32, align 4
  %7 = alloca i32, align 4
  %8 = alloca i32, align 4
  %9 = alloca i32, align 4
  store ptr %0, ptr %4, align 8, !tbaa !4
  store ptr %1, ptr %5, align 8, !tbaa !4
  store i32 %2, ptr %6, align 4, !tbaa !9
  call void @llvm.lifetime.start.p0(i64 4, ptr %7) #6
  call void @llvm.lifetime.start.p0(i64 4, ptr %8) #6
  store i32 0, ptr %8, align 4, !tbaa !9
  call void @llvm.lifetime.start.p0(i64 4, ptr %9) #6
  store i32 0, ptr %9, align 4, !tbaa !9
  br label %10

10:                                               ; preds = %41, %3
  %11 = load i32, ptr %9, align 4, !tbaa !9
  %12 = load i32, ptr %6, align 4, !tbaa !9
  %13 = icmp slt i32 %11, %12
  br i1 %13, label %14, label %44

14:                                               ; preds = %10
  %15 = load ptr, ptr %5, align 8, !tbaa !4
  %16 = load i32, ptr %9, align 4, !tbaa !9
  %17 = sext i32 %16 to i64
  %18 = getelementptr inbounds i16, ptr %15, i64 %17
  %19 = load i16, ptr %18, align 2, !tbaa !11
  %20 = sext i16 %19 to i32
  %21 = icmp sge i32 %20, 0
  br i1 %21, label %22, label %29

22:                                               ; preds = %14
  %23 = load ptr, ptr %5, align 8, !tbaa !4
  %24 = load i32, ptr %9, align 4, !tbaa !9
  %25 = sext i32 %24 to i64
  %26 = getelementptr inbounds i16, ptr %23, i64 %25
  %27 = load i16, ptr %26, align 2, !tbaa !11
  %28 = sext i16 %27 to i32
  br label %37

29:                                               ; preds = %14
  %30 = load ptr, ptr %5, align 8, !tbaa !4
  %31 = load i32, ptr %9, align 4, !tbaa !9
  %32 = sext i32 %31 to i64
  %33 = getelementptr inbounds i16, ptr %30, i64 %32
  %34 = load i16, ptr %33, align 2, !tbaa !11
  %35 = sext i16 %34 to i32
  %36 = sub nsw i32 0, %35
  br label %37

37:                                               ; preds = %29, %22
  %38 = phi i32 [ %28, %22 ], [ %36, %29 ]
  %39 = load i32, ptr %8, align 4, !tbaa !9
  %40 = or i32 %39, %38
  store i32 %40, ptr %8, align 4, !tbaa !9
  br label %41

41:                                               ; preds = %37
  %42 = load i32, ptr %9, align 4, !tbaa !9
  %43 = add nsw i32 %42, 1
  store i32 %43, ptr %9, align 4, !tbaa !9
  br label %10, !llvm.loop !13

44:                                               ; preds = %10
  %45 = load i32, ptr %8, align 4, !tbaa !9
  %46 = call i32 @ff_log2_16bit_c(i32 noundef %45) #7
  %47 = sub nsw i32 14, %46
  store i32 %47, ptr %7, align 4, !tbaa !9
  %48 = load i32, ptr %7, align 4, !tbaa !9
  %49 = icmp sgt i32 %48, 0
  br i1 %49, label %50, label %52

50:                                               ; preds = %44
  %51 = load i32, ptr %7, align 4, !tbaa !9
  br label %53

52:                                               ; preds = %44
  br label %53

53:                                               ; preds = %52, %50
  %54 = phi i32 [ %51, %50 ], [ 0, %52 ]
  store i32 %54, ptr %7, align 4, !tbaa !9
  store i32 0, ptr %9, align 4, !tbaa !9
  br label %55

55:                                               ; preds = %75, %53
  %56 = load i32, ptr %9, align 4, !tbaa !9
  %57 = load i32, ptr %6, align 4, !tbaa !9
  %58 = icmp slt i32 %56, %57
  br i1 %58, label %59, label %78

59:                                               ; preds = %55
  %60 = load ptr, ptr %5, align 8, !tbaa !4
  %61 = load i32, ptr %9, align 4, !tbaa !9
  %62 = sext i32 %61 to i64
  %63 = getelementptr inbounds i16, ptr %60, i64 %62
  %64 = load i16, ptr %63, align 2, !tbaa !11
  %65 = sext i16 %64 to i32
  %66 = load i32, ptr %7, align 4, !tbaa !9
  %67 = shl i32 1, %66
  %68 = mul nsw i32 %65, %67
  %69 = ashr i32 %68, 3
  %70 = trunc i32 %69 to i16
  %71 = load ptr, ptr %4, align 8, !tbaa !4
  %72 = load i32, ptr %9, align 4, !tbaa !9
  %73 = sext i32 %72 to i64
  %74 = getelementptr inbounds i16, ptr %71, i64 %73
  store i16 %70, ptr %74, align 2, !tbaa !11
  br label %75

75:                                               ; preds = %59
  %76 = load i32, ptr %9, align 4, !tbaa !9
  %77 = add nsw i32 %76, 1
  store i32 %77, ptr %9, align 4, !tbaa !9
  br label %55, !llvm.loop !15

78:                                               ; preds = %55
  %79 = load i32, ptr %7, align 4, !tbaa !9
  %80 = sub nsw i32 %79, 3
  call void @llvm.lifetime.end.p0(i64 4, ptr %9) #6
  call void @llvm.lifetime.end.p0(i64 4, ptr %8) #6
  call void @llvm.lifetime.end.p0(i64 4, ptr %7) #6
  ret i32 %80
}