; Function Attrs: nofree norecurse nosync nounwind memory(argmem: readwrite) uwtable
define range(i32 -3, 12) i32 @ff_g723_1_scale_vector(ptr noundef writeonly captures(none) %0, ptr noundef readonly captures(none) %1, i32 noundef %2) local_unnamed_addr #0 {
  %4 = icmp sgt i32 %2, 0
  br i1 %4, label %.lr.ph.preheader, label %._crit_edge

.lr.ph.preheader:                                 ; preds = %3
  %wide.trip.count = zext nneg i32 %2 to i64
  br label %.lr.ph

.lr.ph:                                           ; preds = %.lr.ph.preheader, %.lr.ph
  %indvars.iv = phi i64 [ 0, %.lr.ph.preheader ], [ %indvars.iv.next, %.lr.ph ]
  %.02126 = phi i32 [ 0, %.lr.ph.preheader ], [ %9, %.lr.ph ]
  %5 = getelementptr inbounds nuw i16, ptr %1, i64 %indvars.iv
  %6 = load i16, ptr %5, align 2, !tbaa !4
  %7 = tail call i16 @llvm.abs.i16(i16 %6, i1 false)
  %8 = zext i16 %7 to i32
  %9 = or i32 %.02126, %8
  %indvars.iv.next = add nuw nsw i64 %indvars.iv, 1
  %exitcond.not = icmp eq i64 %indvars.iv.next, %wide.trip.count
  br i1 %exitcond.not, label %._crit_edge, label %.lr.ph, !llvm.loop !8

._crit_edge:                                      ; preds = %.lr.ph, %3
  %.021.lcssa = phi i32 [ 0, %3 ], [ %9, %.lr.ph ]
  %.not.i = icmp samesign ult i32 %.021.lcssa, 256
  %10 = lshr i32 %.021.lcssa, 8
  %spec.select.i = select i1 %.not.i, i32 %.021.lcssa, i32 %10
  %11 = zext nneg i32 %spec.select.i to i64
  %12 = getelementptr inbounds nuw [256 x i8], ptr @ff_log2_tab, i64 0, i64 %11
  %13 = load i8, ptr %12, align 1, !tbaa !10
  %14 = zext i8 %13 to i32
  %.neg25 = select i1 %.not.i, i32 14, i32 6
  %15 = sub nsw i32 %.neg25, %14
  %16 = tail call i32 @llvm.smax.i32(i32 %15, i32 0)
  br i1 %4, label %.lr.ph30.preheader, label %._crit_edge31

.lr.ph30.preheader:                               ; preds = %._crit_edge
  %wide.trip.count37 = zext nneg i32 %2 to i64
  br label %.lr.ph30

.lr.ph30:                                         ; preds = %.lr.ph30.preheader, %.lr.ph30
  %indvars.iv34 = phi i64 [ 0, %.lr.ph30.preheader ], [ %indvars.iv.next35, %.lr.ph30 ]
  %17 = getelementptr inbounds nuw i16, ptr %1, i64 %indvars.iv34
  %18 = load i16, ptr %17, align 2, !tbaa !4
  %19 = sext i16 %18 to i32
  %20 = shl nsw i32 %19, %16
  %21 = lshr i32 %20, 3
  %22 = trunc i32 %21 to i16
  %23 = getelementptr inbounds nuw i16, ptr %0, i64 %indvars.iv34
  store i16 %22, ptr %23, align 2, !tbaa !4
  %indvars.iv.next35 = add nuw nsw i64 %indvars.iv34, 1
  %exitcond38.not = icmp eq i64 %indvars.iv.next35, %wide.trip.count37
  br i1 %exitcond38.not, label %._crit_edge31, label %.lr.ph30, !llvm.loop !11

._crit_edge31:                                    ; preds = %.lr.ph30, %._crit_edge
  %24 = add nsw i32 %16, -3
  ret i32 %24
}